target datalayout = "e-m:e-p270:32:32-p271:32:32-p272:64:64-i64:64-i128:128-f80:128-n8:16:32:64-S128"
target triple = "x86_64-pc-linux-gnu"

%struct.H5FD_splitter_fapl_t = type { i64, i64, [4097 x i8], [4097 x i8], i8 }
%struct.H5FD_splitter_t = type { %struct.H5FD_t, i32, %struct.H5FD_splitter_fapl_t, ptr, ptr, ptr }
%struct.H5FD_t = type { i64, ptr, i64, i32, i64, i64, i64, i64, i64, i8 }

@H5FD_init_g = external global i8, align 1
@H5_libterm_g = external global i8, align 1
@.str = private unnamed_addr constant [106 x i8] c"generated/home/dtcxzyw/WorkSpace/Projects/compilers/llvm-opt-benchmark/bench/hdf5/hdf5/src/H5FDsplitter.c\00", align 1
@H5E_VFL_g = external global i64, align 8
@__func__.H5FD__splitter_unlock = private unnamed_addr constant [22 x i8] c"H5FD__splitter_unlock\00", align 1
@H5E_CANTUNLOCKFILE_g = external global i64, align 8
@.str.68 = private unnamed_addr constant [26 x i8] c"unable to unlock R/W file\00", align 1
@.str.69 = private unnamed_addr constant [26 x i8] c"unable to unlock W/O file\00", align 1

; Function Attrs: nounwind uwtable
define internal i32 @H5FD__splitter_unlock(ptr noundef %0) #0 {
  %2 = alloca ptr, align 8
  %3 = alloca ptr, align 8
  %4 = alloca i32, align 4
  %5 = alloca i8, align 1
  store ptr %0, ptr %2, align 8, !tbaa !38
  call void @llvm.lifetime.start.p0(i64 8, ptr %3) #10
  %6 = load ptr, ptr %2, align 8, !tbaa !38
  store ptr %6, ptr %3, align 8, !tbaa !40
  call void @llvm.lifetime.start.p0(i64 4, ptr %4) #10
  store i32 0, ptr %4, align 4, !tbaa !3
  call void @llvm.lifetime.start.p0(i64 1, ptr %5) #10
  store i8 0, ptr %5, align 1, !tbaa !7
  %7 = load i8, ptr @H5FD_init_g, align 1, !tbaa !7, !range !9, !noundef !10
  %8 = trunc i8 %7 to i1
  br i1 %8, label %13, label %9

9:                                                ; preds = %1
  %10 = load i8, ptr @H5_libterm_g, align 1, !tbaa !7, !range !9, !noundef !10
  %11 = trunc i8 %10 to i1
  %12 = xor i1 %11, true
  br label %13

13:                                               ; preds = %9, %1
  %14 = phi i1 [ true, %1 ], [ %12, %9 ]
  %15 = xor i1 %14, true
  %16 = xor i1 %15, true
  %17 = zext i1 %16 to i32
  %18 = sext i32 %17 to i64
  %19 = call i64 @llvm.expect.i64(i64 %18, i64 1)
  %20 = icmp ne i64 %19, 0
  br i1 %20, label %21, label %79

21:                                               ; preds = %13
  %22 = load ptr, ptr %3, align 8, !tbaa !40
  %23 = getelementptr inbounds nuw %struct.H5FD_splitter_t, ptr %22, i32 0, i32 3
  %24 = load ptr, ptr %23, align 8, !tbaa !42
  %25 = call i32 @H5FD_unlock(ptr noundef %24)
  %26 = icmp slt i32 %25, 0
  br i1 %26, label %27, label %46

27:                                               ; preds = %21
  br label %28

28:                                               ; preds = %27
  br label %29

29:                                               ; preds = %28
  br label %30

30:                                               ; preds = %29
  %31 = load i64, ptr @H5E_VFL_g, align 8, !tbaa !11
  %32 = load i64, ptr @H5E_CANTUNLOCKFILE_g, align 8, !tbaa !11
  %33 = call i32 (ptr, ptr, i32, i64, i64, ptr, ...) @H5E_printf_stack(ptr noundef @.str, ptr noundef @__func__.H5FD__splitter_unlock, i32 noundef 1256, i64 noundef %31, i64 noundef %32, ptr noundef @.str.68)
  br label %34

34:                                               ; preds = %30
  br label %35

35:                                               ; preds = %34
  store i8 1, ptr %5, align 1, !tbaa !7
  %36 = load i8, ptr %5, align 1, !tbaa !7, !range !9, !noundef !10
  %37 = trunc i8 %36 to i1
  %38 = zext i1 %37 to i8
  store i8 %38, ptr %5, align 1, !tbaa !7
  br label %39

39:                                               ; preds = %35
  br label %40

40:                                               ; preds = %39
  br label %41

41:                                               ; preds = %40
  store i32 -1, ptr %4, align 4, !tbaa !3
  br label %78

42:                                               ; No predecessors!
  br label %43

43:                                               ; preds = %42
  br label %44

44:                                               ; preds = %43
  br label %45

45:                                               ; preds = %44
  br label %46

46:                                               ; preds = %45, %21
  %47 = load ptr, ptr %3, align 8, !tbaa !40
  %48 = getelementptr inbounds nuw %struct.H5FD_splitter_t, ptr %47, i32 0, i32 4
  %49 = load ptr, ptr %48, align 8, !tbaa !52
  %50 = icmp ne ptr %49, null
  br i1 %50, label %51, label %77

51:                                               ; preds = %46
  %52 = load ptr, ptr %3, align 8, !tbaa !40
  %53 = getelementptr inbounds nuw %struct.H5FD_splitter_t, ptr %52, i32 0, i32 4
  %54 = load ptr, ptr %53, align 8, !tbaa !52
  %55 = call i32 @H5FD_unlock(ptr noundef %54)
  %56 = icmp slt i32 %55, 0
  br i1 %56, label %57, label %76

57:                                               ; preds = %51
  br label %58

58:                                               ; preds = %57
  br label %59

59:                                               ; preds = %58
  br label %60

60:                                               ; preds = %59
  %61 = load i64, ptr @H5E_VFL_g, align 8, !tbaa !11
  %62 = load i64, ptr @H5E_CANTUNLOCKFILE_g, align 8, !tbaa !11
  %63 = call i32 (ptr, ptr, i32, i64, i64, ptr, ...) @H5E_printf_stack(ptr noundef @.str, ptr noundef @__func__.H5FD__splitter_unlock, i32 noundef 1260, i64 noundef %61, i64 noundef %62, ptr noundef @.str.69)
  br label %64

64:                                               ; preds = %60
  br label %65

65:                                               ; preds = %64
  store i8 1, ptr %5, align 1, !tbaa !7
  %66 = load i8, ptr %5, align 1, !tbaa !7, !range !9, !noundef !10
  %67 = trunc i8 %66 to i1
  %68 = zext i1 %67 to i8
  store i8 %68, ptr %5, align 1, !tbaa !7
  br label %69

69:                                               ; preds = %65
  br label %70

70:                                               ; preds = %69
  br label %71

71:                                               ; preds = %70
  store i32 -1, ptr %4, align 4, !tbaa !3
  br label %78

72:                                               ; No predecessors!
  br label %73

73:                                               ; preds = %72
  br label %74

74:                                               ; preds = %73
  br label %75

75:                                               ; preds = %74
  br label %76

76:                                               ; preds = %75, %51
  br label %77

77:                                               ; preds = %76, %46
  br label %78

78:                                               ; preds = %77, %71, %41
  br label %79

79:                                               ; preds = %78, %13
  %80 = load i32, ptr %4, align 4, !tbaa !3
  call void @llvm.lifetime.end.p0(i64 1, ptr %5) #10
  call void @llvm.lifetime.end.p0(i64 4, ptr %4) #10
  call void @llvm.lifetime.end.p0(i64 8, ptr %3) #10
  ret i32 %80
}