; Function Attrs: nounwind uwtable
define internal range(i32 -1, 1) i32 @H5FD__splitter_unlock(ptr noundef readonly captures(none) %0) #0 {
  %2 = load i8, ptr @H5FD_init_g, align 1, !tbaa !3, !range !7, !noundef !8
  %3 = trunc nuw i8 %2 to i1
  %4 = load i8, ptr @H5_libterm_g, align 1, !range !7
  %5 = trunc nuw i8 %4 to i1
  %6 = xor i1 %5, true
  %7 = select i1 %3, i1 true, i1 %6
  br i1 %7, label %8, label %27, !prof !9

8:                                                ; preds = %1
  %9 = getelementptr inbounds nuw i8, ptr %0, i64 8304
  %10 = load ptr, ptr %9, align 8, !tbaa !33
  %11 = tail call i32 @H5FD_unlock(ptr noundef %10) #12
  %12 = icmp slt i32 %11, 0
  br i1 %12, label %13, label %17

13:                                               ; preds = %8
  %14 = load i64, ptr @H5E_VFL_g, align 8, !tbaa !10
  %15 = load i64, ptr @H5E_CANTUNLOCKFILE_g, align 8, !tbaa !10
  %16 = tail call i32 (ptr, ptr, i32, i64, i64, ptr, ...) @H5E_printf_stack(ptr noundef nonnull @.str, ptr noundef nonnull @__func__.H5FD__splitter_unlock, i32 noundef 1256, i64 noundef %14, i64 noundef %15, ptr noundef nonnull @.str.68) #12
  br label %27

17:                                               ; preds = %8
  %18 = getelementptr inbounds nuw i8, ptr %0, i64 8312
  %19 = load ptr, ptr %18, align 8, !tbaa !43
  %.not = icmp eq ptr %19, null
  br i1 %.not, label %27, label %20

20:                                               ; preds = %17
  %21 = tail call i32 @H5FD_unlock(ptr noundef nonnull %19) #12
  %22 = icmp slt i32 %21, 0
  br i1 %22, label %23, label %27

23:                                               ; preds = %20
  %24 = load i64, ptr @H5E_VFL_g, align 8, !tbaa !10
  %25 = load i64, ptr @H5E_CANTUNLOCKFILE_g, align 8, !tbaa !10
  %26 = tail call i32 (ptr, ptr, i32, i64, i64, ptr, ...) @H5E_printf_stack(ptr noundef nonnull @.str, ptr noundef nonnull @__func__.H5FD__splitter_unlock, i32 noundef 1260, i64 noundef %24, i64 noundef %25, ptr noundef nonnull @.str.69) #12
  br label %27

27:                                               ; preds = %13, %23, %20, %17, %1
  %.0 = phi i32 [ -1, %13 ], [ -1, %23 ], [ 0, %20 ], [ 0, %17 ], [ 0, %1 ]
  ret i32 %.0
}